Certificate:
    Data:
        Version: 3 (0x2)
        Serial Number: 3 (0x3)
        Signature Algorithm: sha256WithRSAEncryption
        Issuer: C=BG, ST=Plovdiv, L=Plovdiv, O=My Company Ltd, OU=Development, CN=localhost/emailAddress=luboid@yahoo.com
        Validity
            Not Before: Dec 31 16:25:54 2020 GMT
            Not After : Dec 31 16:25:54 2021 GMT
        Subject: C=BG, ST=Plovdiv, L=Plovdiv, CN=Stoyan Petkov Yankov
        Subject Public Key Info:
            Public Key Algorithm: rsaEncryption
                RSA Public-Key: (2048 bit)
                Modulus:
                    00:bd:f7:48:17:9e:6f:10:d1:6b:bc:66:71:26:55:
                    93:53:f1:9d:e3:e4:91:01:f5:d5:f7:42:ae:d3:8d:
                    29:15:51:0a:c7:47:be:95:b9:33:c7:41:f1:a6:e5:
                    75:7e:93:db:41:66:10:34:3f:63:17:e1:d9:45:31:
                    a2:a0:8b:1f:1c:a1:12:cc:7a:46:c0:58:d7:bc:23:
                    02:f7:8b:e9:4c:ff:51:81:d8:7e:1e:95:6f:1e:a7:
                    89:ce:4e:56:6a:4e:6c:a8:4e:97:fa:97:98:9f:4d:
                    fc:f9:ba:90:50:2f:f1:33:ed:c1:54:80:e2:59:a0:
                    e6:87:34:a7:fe:25:53:f2:97:e0:65:fa:a5:ed:02:
                    46:4a:7c:54:75:fe:e0:05:90:b1:aa:76:5f:c0:93:
                    db:1e:49:be:31:17:0c:a3:ab:2a:b3:7b:4c:b8:5b:
                    f1:cf:dc:cd:b1:f6:b7:2a:13:c0:ec:25:a0:22:40:
                    1d:f6:50:fa:27:31:09:e4:5b:e4:af:41:05:56:ad:
                    7f:13:75:d6:23:48:93:1c:81:b7:61:82:9c:7e:d5:
                    1b:94:34:1f:f6:8a:a5:31:72:e4:3a:6b:a7:9f:1f:
                    f5:8a:af:2e:65:dc:46:3d:3f:06:20:f3:4c:73:b3:
                    5f:1f:6b:d5:5a:25:c5:0f:ee:11:72:e8:fc:90:4d:
                    73:93
                Exponent: 65537 (0x10001)
        X509v3 extensions:
            X509v3 Basic Constraints: 
                CA:FALSE
            Netscape Comment: 
                OpenSSL Generated Certificate
            X509v3 Subject Key Identifier: 
                A9:0D:31:E4:89:64:BE:5C:AD:0E:6F:4F:3D:A1:4C:7D:70:AA:26:0A
            X509v3 Authority Key Identifier: 
                keyid:6A:45:64:8B:10:82:E9:7E:80:B2:FE:6C:1F:7E:3B:53:9D:0A:5B:92

            X509v3 Extended Key Usage: 
                TLS Web Client Authentication, E-mail Protection
            X509v3 Key Usage: 
                Digital Signature, Non Repudiation, Key Encipherment
    Signature Algorithm: sha256WithRSAEncryption
         71:4c:84:33:3e:83:44:71:b1:6a:7b:eb:68:d4:7c:8a:dc:5a:
         da:1e:87:61:43:ed:ea:c9:6b:17:8f:8c:1c:83:8d:d4:5e:57:
         b8:28:45:ae:4d:23:38:27:7b:67:7f:ed:df:80:cc:b7:ba:40:
         5b:a0:59:57:f9:95:01:56:4b:f7:d7:91:8c:3c:1c:15:2b:66:
         c6:3f:af:c6:cc:06:ac:ff:a7:f7:b2:08:b9:90:c4:80:0d:2f:
         2c:91:3b:b2:c5:49:cd:60:a2:e4:75:59:3f:e4:68:eb:50:ca:
         72:75:be:8a:b7:64:7f:5a:97:94:55:3f:cd:9c:f8:a3:ce:6a:
         a5:95:36:cf:d9:75:b2:1e:e5:eb:92:ad:1b:8b:4e:0c:33:8e:
         44:24:b3:39:bc:13:40:e9:7a:cf:eb:45:f4:cc:77:ba:12:7d:
         fb:15:a6:a0:63:44:d8:dd:19:5a:2d:94:f3:47:0e:75:68:1b:
         47:80:b9:ec:a3:33:64:fb:14:51:c7:9b:60:e7:74:a4:7d:df:
         ab:1b:2f:5a:fb:b2:98:10:85:83:6d:92:13:97:e9:47:38:8f:
         2f:14:4f:4d:fe:01:8c:5c:73:1c:8b:0c:e7:b3:40:99:27:f2:
         bd:f3:11:87:1d:f6:24:9f:38:9f:7a:06:f4:f8:e7:f0:26:8c:
         2a:62:c9:68
-----BEGIN CERTIFICATE-----
MIIECjCCAvKgAwIBAgIBAzANBgkqhkiG9w0BAQsFADCBlTELMAkGA1UEBhMCQkcx
EDAOBgNVBAgMB1Bsb3ZkaXYxEDAOBgNVBAcMB1Bsb3ZkaXYxFzAVBgNVBAoMDk15
IENvbXBhbnkgTHRkMRQwEgYDVQQLDAtEZXZlbG9wbWVudDESMBAGA1UEAwwJbG9j
YWxob3N0MR8wHQYJKoZIhvcNAQkBFhBsdWJvaWRAeWFob28uY29tMB4XDTIwMTIz
MTE2MjU1NFoXDTIxMTIzMTE2MjU1NFowUDELMAkGA1UEBhMCQkcxEDAOBgNVBAgM
B1Bsb3ZkaXYxEDAOBgNVBAcMB1Bsb3ZkaXYxHTAbBgNVBAMMFFN0b3lhbiBQZXRr
b3YgWWFua292MIIBIjANBgkqhkiG9w0BAQEFAAOCAQ8AMIIBCgKCAQEAvfdIF55v
ENFrvGZxJlWTU/Gd4+SRAfXV90Ku040pFVEKx0e+lbkzx0HxpuV1fpPbQWYQND9j
F+HZRTGioIsfHKESzHpGwFjXvCMC94vpTP9Rgdh+HpVvHqeJzk5Wak5sqE6X+peY
n038+bqQUC/xM+3BVIDiWaDmhzSn/iVT8pfgZfql7QJGSnxUdf7gBZCxqnZfwJPb
Hkm+MRcMo6sqs3tMuFvxz9zNsfa3KhPA7CWgIkAd9lD6JzEJ5Fvkr0EFVq1/E3XW
I0iTHIG3YYKcftUblDQf9oqlMXLkOmunnx/1iq8uZdxGPT8GIPNMc7NfH2vVWiXF
D+4Rcuj8kE1zkwIDAQABo4GoMIGlMAkGA1UdEwQCMAAwLAYJYIZIAYb4QgENBB8W
HU9wZW5TU0wgR2VuZXJhdGVkIENlcnRpZmljYXRlMB0GA1UdDgQWBBSpDTHkiWS+
XK0Ob089oUx9cKomCjAfBgNVHSMEGDAWgBRqRWSLEILpfoCy/mwffjtTnQpbkjAd
BgNVHSUEFjAUBggrBgEFBQcDAgYIKwYBBQUHAwQwCwYDVR0PBAQDAgXgMA0GCSqG
SIb3DQEBCwUAA4IBAQBxTIQzPoNEcbFqe+to1HyK3FraHodhQ+3qyWsXj4wcg43U
Xle4KEWuTSM4J3tnf+3fgMy3ukBboFlX+ZUBVkv315GMPBwVK2bGP6/GzAas/6f3
sgi5kMSADS8skTuyxUnNYKLkdVk/5GjrUMpydb6Kt2R/WpeUVT/NnPijzmqllTbP
2XWyHuXrkq0bi04MM45EJLM5vBNA6XrP60X0zHe6En37FaagY0TY3RlaLZTzRw51
aBtHgLnsozNk+xRRx5tg53Skfd+rGy9a+7KYEIWDbZITl+lHOI8vFE9N/gGMXHMc
iwzns0CZJ/K98xGHHfYknzifegb0+OfwJowqYslo
-----END CERTIFICATE-----
