Certificate:
    Data:
        Version: 3 (0x2)
        Serial Number: 2 (0x2)
        Signature Algorithm: sha256WithRSAEncryption
        Issuer: C=BG, ST=Plovdiv, L=Plovdiv, O=My Company Ltd, OU=Development, CN=localhost/emailAddress=luboid@yahoo.com
        Validity
            Not Before: Dec 31 14:32:50 2020 GMT
            Not After : Dec 31 14:32:50 2021 GMT
        Subject: C=BG, ST=Plovdiv, L=Plovdiv, CN=Ivan Petkov Styanov
        Subject Public Key Info:
            Public Key Algorithm: rsaEncryption
                RSA Public-Key: (2048 bit)
                Modulus:
                    00:d3:8e:31:f1:28:a4:ad:9d:53:7c:2e:f1:27:44:
                    dc:2d:c8:2d:16:32:21:2c:ea:fd:0d:5f:66:02:33:
                    ac:bb:52:df:4e:d7:cf:1b:a2:26:20:1c:cc:86:b6:
                    fe:55:ab:fb:40:e4:a4:86:90:8f:49:f4:b9:de:fc:
                    c6:40:23:85:36:04:74:90:30:7a:78:e4:a1:7a:d6:
                    c7:57:c3:ba:31:55:d8:0a:24:99:fa:14:c0:be:83:
                    a9:e9:d4:63:f6:5f:cf:15:e6:d4:6d:4a:e7:61:fd:
                    f7:9f:da:d0:02:cf:58:52:87:47:2d:44:28:71:57:
                    b7:07:ec:ef:c5:5d:3d:57:a0:68:77:1b:a4:2c:f7:
                    8a:b3:af:09:4c:b3:f6:7d:f3:9f:0b:ca:21:ab:1c:
                    03:c8:85:f7:37:a7:15:bf:8b:b9:2d:12:48:eb:55:
                    61:74:9f:90:94:bb:56:cf:1e:94:39:64:35:b0:ff:
                    af:4b:1c:b6:af:06:4d:1e:d2:52:69:6b:43:c4:28:
                    26:18:f2:d9:66:1a:78:d7:53:d5:3a:b7:63:ae:e3:
                    f4:2b:43:48:39:07:53:10:af:b0:76:4b:34:08:89:
                    4d:0b:12:73:cd:a6:72:48:8c:0c:fe:4b:fe:f7:ab:
                    1b:a4:cc:c0:d8:f2:60:7d:4f:5d:f2:57:5f:d2:85:
                    99:ef
                Exponent: 65537 (0x10001)
        X509v3 extensions:
            X509v3 Basic Constraints: 
                CA:FALSE
            Netscape Comment: 
                OpenSSL Generated Certificate
            X509v3 Subject Key Identifier: 
                5B:D2:26:5C:97:35:07:D7:E9:54:DA:9B:85:E5:F9:9C:3F:9D:26:6B
            X509v3 Authority Key Identifier: 
                keyid:6A:45:64:8B:10:82:E9:7E:80:B2:FE:6C:1F:7E:3B:53:9D:0A:5B:92

            X509v3 Extended Key Usage: 
                TLS Web Client Authentication, E-mail Protection
            X509v3 Key Usage: 
                Digital Signature, Non Repudiation, Key Encipherment
    Signature Algorithm: sha256WithRSAEncryption
         3a:a8:fc:d5:cb:4f:e9:80:66:bb:23:35:c6:5b:72:17:b7:a4:
         00:f1:39:3a:33:9e:09:51:ac:e1:87:c9:c8:a4:37:b8:98:18:
         6a:27:b2:46:72:f9:38:8e:42:13:1a:d2:0b:07:69:d6:e4:95:
         53:34:67:93:9e:6e:54:e4:ff:b0:2f:13:87:3a:9c:f8:5d:2d:
         62:12:fb:97:ce:8d:68:1c:6e:66:9e:e6:45:b3:c4:f9:84:8a:
         be:6e:ae:27:97:66:19:b3:d5:b6:61:c9:4a:d2:c7:95:98:cb:
         fd:53:22:17:14:81:d3:c9:1e:ad:32:f5:be:6a:99:83:db:c0:
         b9:e6:0c:02:ab:1b:02:5f:5e:9e:fa:37:77:f8:83:8c:a3:67:
         fe:33:d9:62:41:da:6a:f7:80:2e:77:5d:ff:c9:70:15:e2:70:
         69:9b:5f:b9:39:b2:2b:96:a5:1e:c5:1b:3b:d9:17:0d:fb:76:
         6f:2a:6f:b1:06:3a:03:7e:d0:9d:20:85:c8:25:b0:e7:e1:f8:
         87:b7:4e:08:3f:8e:7b:45:2a:0a:38:5a:c3:c8:98:a2:f7:3a:
         b0:3f:cc:42:1d:ad:8f:fb:65:9d:49:bd:62:a1:38:f3:6b:c0:
         db:9f:45:85:df:fa:28:83:95:f4:bc:08:78:6e:7a:ee:3d:e2:
         28:b0:2f:1c
-----BEGIN CERTIFICATE-----
MIIECTCCAvGgAwIBAgIBAjANBgkqhkiG9w0BAQsFADCBlTELMAkGA1UEBhMCQkcx
EDAOBgNVBAgMB1Bsb3ZkaXYxEDAOBgNVBAcMB1Bsb3ZkaXYxFzAVBgNVBAoMDk15
IENvbXBhbnkgTHRkMRQwEgYDVQQLDAtEZXZlbG9wbWVudDESMBAGA1UEAwwJbG9j
YWxob3N0MR8wHQYJKoZIhvcNAQkBFhBsdWJvaWRAeWFob28uY29tMB4XDTIwMTIz
MTE0MzI1MFoXDTIxMTIzMTE0MzI1MFowTzELMAkGA1UEBhMCQkcxEDAOBgNVBAgM
B1Bsb3ZkaXYxEDAOBgNVBAcMB1Bsb3ZkaXYxHDAaBgNVBAMME0l2YW4gUGV0a292
IFN0eWFub3YwggEiMA0GCSqGSIb3DQEBAQUAA4IBDwAwggEKAoIBAQDTjjHxKKSt
nVN8LvEnRNwtyC0WMiEs6v0NX2YCM6y7Ut9O188boiYgHMyGtv5Vq/tA5KSGkI9J
9Lne/MZAI4U2BHSQMHp45KF61sdXw7oxVdgKJJn6FMC+g6np1GP2X88V5tRtSudh
/fef2tACz1hSh0ctRChxV7cH7O/FXT1XoGh3G6Qs94qzrwlMs/Z9858LyiGrHAPI
hfc3pxW/i7ktEkjrVWF0n5CUu1bPHpQ5ZDWw/69LHLavBk0e0lJpa0PEKCYY8tlm
GnjXU9U6t2Ou4/QrQ0g5B1MQr7B2SzQIiU0LEnPNpnJIjAz+S/73qxukzMDY8mB9
T13yV1/ShZnvAgMBAAGjgagwgaUwCQYDVR0TBAIwADAsBglghkgBhvhCAQ0EHxYd
T3BlblNTTCBHZW5lcmF0ZWQgQ2VydGlmaWNhdGUwHQYDVR0OBBYEFFvSJlyXNQfX
6VTam4Xl+Zw/nSZrMB8GA1UdIwQYMBaAFGpFZIsQgul+gLL+bB9+O1OdCluSMB0G
A1UdJQQWMBQGCCsGAQUFBwMCBggrBgEFBQcDBDALBgNVHQ8EBAMCBeAwDQYJKoZI
hvcNAQELBQADggEBADqo/NXLT+mAZrsjNcZbche3pADxOToznglRrOGHycikN7iY
GGonskZy+TiOQhMa0gsHadbklVM0Z5OeblTk/7AvE4c6nPhdLWIS+5fOjWgcbmae
5kWzxPmEir5urieXZhmz1bZhyUrSx5WYy/1TIhcUgdPJHq0y9b5qmYPbwLnmDAKr
GwJfXp76N3f4g4yjZ/4z2WJB2mr3gC53Xf/JcBXicGmbX7k5siuWpR7FGzvZFw37
dm8qb7EGOgN+0J0ghcglsOfh+Ie3Tgg/jntFKgo4WsPImKL3OrA/zEIdrY/7ZZ1J
vWKhOPNrwNufRYXf+iiDlfS8CHhueu494iiwLxw=
-----END CERTIFICATE-----
