Certificate:
    Data:
        Version: 3 (0x2)
        Serial Number: 1 (0x1)
        Signature Algorithm: sha256WithRSAEncryption
        Issuer: C=BG, ST=Plovdiv, L=Plovdiv, O=My Company Ltd, OU=Development, CN=localhost/emailAddress=luboid@yahoo.com
        Validity
            Not Before: Dec 31 10:33:43 2020 GMT
            Not After : Dec 31 10:33:43 2021 GMT
        Subject: C=BG, ST=Plovdiv, L=Plovdiv, O=My Company Ltd, OU=Development, CN=localhost
        Subject Public Key Info:
            Public Key Algorithm: rsaEncryption
                RSA Public-Key: (2048 bit)
                Modulus:
                    00:e8:b8:92:10:f9:b4:ba:34:d8:39:ad:87:76:3f:
                    1f:5d:4c:79:e3:42:ac:bb:51:f0:82:78:1a:8e:90:
                    f5:06:4c:c4:66:cd:91:5e:a7:b3:6b:af:23:46:10:
                    fa:9d:bf:09:30:4f:5c:8d:c1:33:ff:52:b2:b2:6f:
                    b5:08:bb:2f:df:46:de:c7:ab:ce:e7:e9:cf:e5:0e:
                    84:62:2e:56:cb:13:51:ce:33:95:40:6c:85:f6:77:
                    7a:19:50:7c:59:1c:d9:be:0d:0e:ab:6c:c5:26:cf:
                    09:20:79:f9:17:f9:fb:b5:9b:6c:d0:89:05:e9:df:
                    66:a8:a6:14:85:ad:f5:00:ae:50:48:c8:7b:75:d2:
                    92:41:cc:ec:eb:cc:70:b4:1d:e5:30:a2:62:fa:fa:
                    1f:58:3f:eb:09:8a:f4:45:ff:f8:42:ae:c4:20:de:
                    df:57:98:ad:01:cf:6e:18:61:c4:b7:b2:7d:d7:7a:
                    70:f1:5d:de:45:6c:77:a2:e3:90:62:c5:e8:37:ec:
                    a1:91:aa:aa:39:56:b0:15:e9:52:dd:64:5b:c2:34:
                    f3:76:10:3f:b8:28:f7:bc:5d:47:53:66:5c:3a:f2:
                    ed:37:10:ea:0a:9d:c3:10:42:02:c9:43:40:05:55:
                    6e:91:16:ff:87:c1:c4:b4:8a:fb:72:c2:0a:41:32:
                    6a:6b
                Exponent: 65537 (0x10001)
        X509v3 extensions:
            X509v3 Basic Constraints: 
                CA:FALSE
            Netscape Comment: 
                OpenSSL Generated Certificate
            X509v3 Subject Key Identifier: 
                F9:15:AA:81:B9:AA:32:5F:51:2E:E6:7E:30:89:D4:75:A2:A0:BD:58
            X509v3 Authority Key Identifier: 
                keyid:6A:45:64:8B:10:82:E9:7E:80:B2:FE:6C:1F:7E:3B:53:9D:0A:5B:92

            X509v3 Extended Key Usage: 
                TLS Web Server Authentication
            X509v3 Key Usage: 
                Digital Signature, Key Encipherment
            X509v3 Subject Alternative Name: 
                DNS:localhost, DNS:127.0.0.1
    Signature Algorithm: sha256WithRSAEncryption
         92:a8:0f:47:0b:5a:2a:04:ff:c2:a6:ec:15:06:ac:7a:7d:71:
         22:9d:ba:4c:34:b7:bb:44:56:c3:df:be:7a:23:d5:84:2c:c2:
         0a:ef:84:24:f1:16:66:61:9f:c6:f6:b1:7b:38:4d:61:5f:6c:
         85:c8:f4:ed:40:7e:1d:64:a4:3f:8e:82:f5:8c:ac:66:22:40:
         96:05:82:31:24:48:2f:f5:6e:bc:c8:a0:ce:a5:ee:a5:05:56:
         cc:ed:a1:db:b9:b1:3f:7f:4f:06:11:6d:74:83:b3:bd:67:07:
         7f:2a:69:a6:45:74:c6:02:db:0f:6f:9a:53:7e:c2:62:87:9b:
         a5:5e:f6:8a:a5:56:ad:0d:5d:64:7f:22:bf:44:91:dd:86:95:
         61:da:c4:18:ca:f0:cb:51:f9:c7:68:5c:62:39:7c:1b:c2:43:
         1f:21:1b:38:f3:5b:d9:ca:a5:78:85:81:99:ae:8a:7c:1d:26:
         3b:9a:48:1d:dc:09:53:6e:1a:d7:79:12:22:bf:4f:cb:b0:ea:
         c4:2a:f9:6b:e0:fc:9a:87:f8:a8:79:aa:8c:2a:99:2e:9b:4e:
         ee:54:c4:a5:1c:51:e7:e1:45:a2:89:91:36:0d:08:e7:5b:7e:
         d8:a4:d8:10:72:05:2d:27:94:e4:87:b3:f1:33:10:82:d2:4a:
         c9:b1:44:1a
-----BEGIN CERTIFICATE-----
MIIERTCCAy2gAwIBAgIBATANBgkqhkiG9w0BAQsFADCBlTELMAkGA1UEBhMCQkcx
EDAOBgNVBAgMB1Bsb3ZkaXYxEDAOBgNVBAcMB1Bsb3ZkaXYxFzAVBgNVBAoMDk15
IENvbXBhbnkgTHRkMRQwEgYDVQQLDAtEZXZlbG9wbWVudDESMBAGA1UEAwwJbG9j
YWxob3N0MR8wHQYJKoZIhvcNAQkBFhBsdWJvaWRAeWFob28uY29tMB4XDTIwMTIz
MTEwMzM0M1oXDTIxMTIzMTEwMzM0M1owdDELMAkGA1UEBhMCQkcxEDAOBgNVBAgM
B1Bsb3ZkaXYxEDAOBgNVBAcMB1Bsb3ZkaXYxFzAVBgNVBAoMDk15IENvbXBhbnkg
THRkMRQwEgYDVQQLDAtEZXZlbG9wbWVudDESMBAGA1UEAwwJbG9jYWxob3N0MIIB
IjANBgkqhkiG9w0BAQEFAAOCAQ8AMIIBCgKCAQEA6LiSEPm0ujTYOa2Hdj8fXUx5
40Ksu1HwgngajpD1BkzEZs2RXqeza68jRhD6nb8JME9cjcEz/1Kysm+1CLsv30be
x6vO5+nP5Q6EYi5WyxNRzjOVQGyF9nd6GVB8WRzZvg0Oq2zFJs8JIHn5F/n7tZts
0IkF6d9mqKYUha31AK5QSMh7ddKSQczs68xwtB3lMKJi+vofWD/rCYr0Rf/4Qq7E
IN7fV5itAc9uGGHEt7J913pw8V3eRWx3ouOQYsXoN+yhkaqqOVawFelS3WRbwjTz
dhA/uCj3vF1HU2ZcOvLtNxDqCp3DEEICyUNABVVukRb/h8HEtIr7csIKQTJqawID
AQABo4G/MIG8MAkGA1UdEwQCMAAwLAYJYIZIAYb4QgENBB8WHU9wZW5TU0wgR2Vu
ZXJhdGVkIENlcnRpZmljYXRlMB0GA1UdDgQWBBT5FaqBuaoyX1Eu5n4widR1oqC9
WDAfBgNVHSMEGDAWgBRqRWSLEILpfoCy/mwffjtTnQpbkjATBgNVHSUEDDAKBggr
BgEFBQcDATALBgNVHQ8EBAMCBaAwHwYDVR0RBBgwFoIJbG9jYWxob3N0ggkxMjcu
MC4wLjEwDQYJKoZIhvcNAQELBQADggEBAJKoD0cLWioE/8Km7BUGrHp9cSKdukw0
t7tEVsPfvnoj1YQswgrvhCTxFmZhn8b2sXs4TWFfbIXI9O1Afh1kpD+OgvWMrGYi
QJYFgjEkSC/1brzIoM6l7qUFVsztodu5sT9/TwYRbXSDs71nB38qaaZFdMYC2w9v
mlN+wmKHm6Ve9oqlVq0NXWR/Ir9Ekd2GlWHaxBjK8MtR+cdoXGI5fBvCQx8hGzjz
W9nKpXiFgZmuinwdJjuaSB3cCVNuGtd5EiK/T8uw6sQq+Wvg/JqH+Kh5qowqmS6b
Tu5UxKUcUefhRaKJkTYNCOdbftik2BByBS0nlOSHs/EzEILSSsmxRBo=
-----END CERTIFICATE-----
